target datalayout = "e-m:e-p270:32:32-p271:32:32-p272:64:64-i64:64-i128:128-f80:128-n8:16:32:64-S128"
target triple = "x86_64-pc-linux-gnu"

@.str.39 = private unnamed_addr constant [8 x i8] c"setup.c\00", align 1
@.str.66 = private unnamed_addr constant [4 x i8] c"all\00", align 1
@.str.135 = private unnamed_addr constant [9 x i8] c"explicit\00", align 1
@.str.136 = private unnamed_addr constant [29 x i8] c"invalid allowed_bare_repo %d\00", align 1

; Function Attrs: nounwind uwtable
define internal ptr @allowed_bare_repo_to_string(i32 noundef %0) #0 {
  %2 = alloca ptr, align 8
  %3 = alloca i32, align 4
  store i32 %0, ptr %3, align 4, !tbaa !9
  %4 = load i32, ptr %3, align 4, !tbaa !9
  switch i32 %4, label %7 [
    i32 0, label %5
    i32 1, label %6
  ]

5:                                                ; preds = %1
  store ptr @.str.135, ptr %2, align 8
  br label %9

6:                                                ; preds = %1
  store ptr @.str.66, ptr %2, align 8
  br label %9

7:                                                ; preds = %1
  %8 = load i32, ptr %3, align 4, !tbaa !9
  call void (ptr, i32, ptr, ...) @BUG_fl(ptr noundef @.str.39, i32 noundef 1390, ptr noundef @.str.136, i32 noundef %8) #15
  unreachable

9:                                                ; preds = %6, %5
  %10 = load ptr, ptr %2, align 8
  ret ptr %10
}