; Function Attrs: nounwind uwtable
define internal fastcc noundef nonnull ptr @allowed_bare_repo_to_string(i32 noundef %0) unnamed_addr #0 {
  switch i32 %0, label %3 [
    i32 0, label %4
    i32 1, label %2
  ]

2:                                                ; preds = %1
  br label %4

3:                                                ; preds = %1
  tail call void (ptr, i32, ptr, ...) @BUG_fl(ptr noundef nonnull @.str.39, i32 noundef 1390, ptr noundef nonnull @.str.136, i32 noundef %0) #26
  unreachable

4:                                                ; preds = %1, %2
  %.0 = phi ptr [ @.str.66, %2 ], [ @.str.135, %1 ]
  ret ptr %.0
}